; Function Attrs: mustprogress nounwind uwtable
define internal fastcc void @_ZN12_GLOBAL__N_112CFGBlockInfoC2ERKS0_(ptr noundef nonnull align 8 dereferenceable(93) %0, ptr noundef nonnull align 8 dereferenceable(93) %1) unnamed_addr #1 align 2 {
  %3 = getelementptr inbounds nuw i8, ptr %0, i64 24
  tail call void @_ZN4llvm15SmallVectorBaseImEC2EPvm(ptr noundef nonnull align 8 dereferenceable(32) %0, ptr noundef nonnull %3, i64 noundef 4) #18
  %4 = tail call noundef zeroext i1 @_ZNK4llvm15SmallVectorBaseImE5emptyEv(ptr noundef nonnull align 8 dereferenceable(32) %1) #18
  br i1 %4, label %_ZN12_GLOBAL__N_17FactSetC2ERKS0_.exit, label %5

5:                                                ; preds = %2
  %6 = tail call noundef nonnull align 8 dereferenceable(24) ptr @_ZN4llvm15SmallVectorImplItEaSERKS1_(ptr noundef nonnull align 8 dereferenceable(32) %0, ptr noundef nonnull align 8 dereferenceable(32) %1)
  br label %_ZN12_GLOBAL__N_17FactSetC2ERKS0_.exit

_ZN12_GLOBAL__N_17FactSetC2ERKS0_.exit:           ; preds = %2, %5
  %7 = getelementptr inbounds nuw i8, ptr %0, i64 32
  %8 = getelementptr inbounds nuw i8, ptr %1, i64 32
  %9 = getelementptr inbounds nuw i8, ptr %0, i64 56
  tail call void @_ZN4llvm15SmallVectorBaseImEC2EPvm(ptr noundef nonnull align 8 dereferenceable(32) %7, ptr noundef nonnull %9, i64 noundef 4) #18
  %10 = tail call noundef zeroext i1 @_ZNK4llvm15SmallVectorBaseImE5emptyEv(ptr noundef nonnull align 8 dereferenceable(32) %8) #18
  br i1 %10, label %_ZN12_GLOBAL__N_17FactSetC2ERKS0_.exit6, label %11

11:                                               ; preds = %_ZN12_GLOBAL__N_17FactSetC2ERKS0_.exit
  %12 = tail call noundef nonnull align 8 dereferenceable(24) ptr @_ZN4llvm15SmallVectorImplItEaSERKS1_(ptr noundef nonnull align 8 dereferenceable(32) %7, ptr noundef nonnull align 8 dereferenceable(32) %8)
  br label %_ZN12_GLOBAL__N_17FactSetC2ERKS0_.exit6

_ZN12_GLOBAL__N_17FactSetC2ERKS0_.exit6:          ; preds = %_ZN12_GLOBAL__N_17FactSetC2ERKS0_.exit, %11
  %13 = getelementptr inbounds nuw i8, ptr %0, i64 64
  %14 = getelementptr inbounds nuw i8, ptr %1, i64 64
  %15 = load ptr, ptr %14, align 8
  store ptr %15, ptr %13, align 8
  %.not.i.i.i = icmp eq ptr %15, null
  br i1 %.not.i.i.i, label %_ZN4llvm12ImmutableMapIPKN5clang9NamedDeclEjNS_16ImutKeyValueInfoIS4_jEEEC2ERKS7_.exit, label %16

16:                                               ; preds = %_ZN12_GLOBAL__N_17FactSetC2ERKS0_.exit6
  %17 = getelementptr inbounds nuw i8, ptr %15, i64 68
  %18 = load i32, ptr %17, align 4
  %19 = add i32 %18, 1
  store i32 %19, ptr %17, align 4
  br label %_ZN4llvm12ImmutableMapIPKN5clang9NamedDeclEjNS_16ImutKeyValueInfoIS4_jEEEC2ERKS7_.exit

_ZN4llvm12ImmutableMapIPKN5clang9NamedDeclEjNS_16ImutKeyValueInfoIS4_jEEEC2ERKS7_.exit: ; preds = %_ZN12_GLOBAL__N_17FactSetC2ERKS0_.exit6, %16
  %20 = getelementptr inbounds nuw i8, ptr %0, i64 72
  %21 = getelementptr inbounds nuw i8, ptr %1, i64 72
  %22 = load ptr, ptr %21, align 8
  store ptr %22, ptr %20, align 8
  %.not.i.i.i7 = icmp eq ptr %22, null
  br i1 %.not.i.i.i7, label %_ZN4llvm12ImmutableMapIPKN5clang9NamedDeclEjNS_16ImutKeyValueInfoIS4_jEEEC2ERKS7_.exit8, label %23

23:                                               ; preds = %_ZN4llvm12ImmutableMapIPKN5clang9NamedDeclEjNS_16ImutKeyValueInfoIS4_jEEEC2ERKS7_.exit
  %24 = getelementptr inbounds nuw i8, ptr %22, i64 68
  %25 = load i32, ptr %24, align 4
  %26 = add i32 %25, 1
  store i32 %26, ptr %24, align 4
  br label %_ZN4llvm12ImmutableMapIPKN5clang9NamedDeclEjNS_16ImutKeyValueInfoIS4_jEEEC2ERKS7_.exit8

_ZN4llvm12ImmutableMapIPKN5clang9NamedDeclEjNS_16ImutKeyValueInfoIS4_jEEEC2ERKS7_.exit8: ; preds = %_ZN4llvm12ImmutableMapIPKN5clang9NamedDeclEjNS_16ImutKeyValueInfoIS4_jEEEC2ERKS7_.exit, %23
  %27 = getelementptr inbounds nuw i8, ptr %0, i64 80
  %28 = getelementptr inbounds nuw i8, ptr %1, i64 80
  tail call void @llvm.memcpy.p0.p0.i64(ptr noundef nonnull align 8 dereferenceable(13) %27, ptr noundef nonnull align 8 dereferenceable(13) %28, i64 13, i1 false)
  ret void
}